target datalayout = "e-m:e-p270:32:32-p271:32:32-p272:64:64-i64:64-i128:128-f80:128-n8:16:32:64-S128"
target triple = "x86_64-unknown-linux-gnu"

%"class.icu_75::DictionaryBreakEngine" = type { %"class.icu_75::LanguageBreakEngine", %"class.icu_75::UnicodeSet" }
%"class.icu_75::LanguageBreakEngine" = type { %"class.icu_75::UObject" }
%"class.icu_75::UObject" = type { ptr }
%"class.icu_75::UnicodeSet" = type <{ %"class.icu_75::UnicodeFilter", ptr, i32, i32, i8, [7 x i8], ptr, ptr, i32, [4 x i8], ptr, i32, [4 x i8], ptr, ptr, [25 x i32], [4 x i8] }>
%"class.icu_75::UnicodeFilter" = type { %"class.icu_75::UnicodeFunctor", %"class.icu_75::UnicodeMatcher" }
%"class.icu_75::UnicodeFunctor" = type { %"class.icu_75::UObject" }
%"class.icu_75::UnicodeMatcher" = type { ptr }
%"class.icu_75::CjkBreakEngine" = type { %"class.icu_75::DictionaryBreakEngine", %"class.icu_75::UnicodeSet", %"class.icu_75::UnicodeSet", %"class.icu_75::UnicodeSet", ptr, ptr, ptr, i8, %"class.icu_75::Hashtable" }
%"class.icu_75::Hashtable" = type { ptr, %struct.UHashtable }
%struct.UHashtable = type { ptr, ptr, ptr, ptr, ptr, ptr, i32, i32, i32, i32, float, float, i8, i8 }

; Function Attrs: mustprogress nounwind uwtable
define void @_ZN6icu_7521DictionaryBreakEngineD2Ev(ptr noundef nonnull align 8 dereferenceable(208) %this) unnamed_addr #3 align 2 {
entry:
  %this.addr = alloca ptr, align 8
  store ptr %this, ptr %this.addr, align 8
  %this1 = load ptr, ptr %this.addr, align 8
  store ptr getelementptr inbounds ({ [9 x ptr] }, ptr @_ZTVN6icu_7521DictionaryBreakEngineE, i32 0, i32 0, i32 2), ptr %this1, align 8
  %fSet = getelementptr inbounds %"class.icu_75::DictionaryBreakEngine", ptr %this1, i32 0, i32 1
  call void @_ZN6icu_7510UnicodeSetD1Ev(ptr noundef nonnull align 8 dereferenceable(200) %fSet) #7
  call void @_ZN6icu_7519LanguageBreakEngineD2Ev(ptr noundef nonnull align 8 dereferenceable(8) %this1) #7
  ret void
}

; Function Attrs: mustprogress nounwind uwtable
define linkonce_odr void @_ZN6icu_759HashtableD2Ev(ptr noundef nonnull align 8 dereferenceable(88) %this) unnamed_addr #3 comdat align 2 personality ptr @__gxx_personality_v0 {
entry:
  %this.addr = alloca ptr, align 8
  store ptr %this, ptr %this.addr, align 8
  %this1 = load ptr, ptr %this.addr, align 8
  %hash = getelementptr inbounds %"class.icu_75::Hashtable", ptr %this1, i32 0, i32 0
  %0 = load ptr, ptr %hash, align 8
  %cmp = icmp ne ptr %0, null
  br i1 %cmp, label %if.then, label %if.end

if.then:                                          ; preds = %entry
  %hash2 = getelementptr inbounds %"class.icu_75::Hashtable", ptr %this1, i32 0, i32 0
  %1 = load ptr, ptr %hash2, align 8
  invoke void @uhash_close_75(ptr noundef %1)
          to label %invoke.cont unwind label %terminate.lpad

invoke.cont:                                      ; preds = %if.then
  br label %if.end

if.end:                                           ; preds = %invoke.cont, %entry
  ret void

terminate.lpad:                                   ; preds = %if.then
  %2 = landingpad { ptr, i32 }
          catch ptr null
  %3 = extractvalue { ptr, i32 } %2, 0
  call void @__clang_call_terminate(ptr %3) #8
  unreachable
}

; Function Attrs: mustprogress nounwind uwtable
define void @_ZN6icu_7514CjkBreakEngineD2Ev(ptr noundef nonnull align 8 dereferenceable(928) %this) unnamed_addr #3 align 2 {
entry:
  %this.addr = alloca ptr, align 8
  store ptr %this, ptr %this.addr, align 8
  %this1 = load ptr, ptr %this.addr, align 8
  store ptr getelementptr inbounds ({ [9 x ptr] }, ptr @_ZTVN6icu_7514CjkBreakEngineE, i32 0, i32 0, i32 2), ptr %this1, align 8
  %fDictionary = getelementptr inbounds %"class.icu_75::CjkBreakEngine", ptr %this1, i32 0, i32 4
  %0 = load ptr, ptr %fDictionary, align 8
  %isnull = icmp eq ptr %0, null
  br i1 %isnull, label %delete.end, label %delete.notnull

delete.notnull:                                   ; preds = %entry
  %vtable = load ptr, ptr %0, align 8
  %vfn = getelementptr inbounds ptr, ptr %vtable, i64 1
  %1 = load ptr, ptr %vfn, align 8
  call void %1(ptr noundef nonnull align 8 dereferenceable(8) %0) #7
  br label %delete.end

delete.end:                                       ; preds = %delete.notnull, %entry
  %fMlBreakEngine = getelementptr inbounds %"class.icu_75::CjkBreakEngine", ptr %this1, i32 0, i32 6
  %2 = load ptr, ptr %fMlBreakEngine, align 8
  %isnull2 = icmp eq ptr %2, null
  br i1 %isnull2, label %delete.end6, label %delete.notnull3

delete.notnull3:                                  ; preds = %delete.end
  %vtable4 = load ptr, ptr %2, align 8
  %vfn5 = getelementptr inbounds ptr, ptr %vtable4, i64 1
  %3 = load ptr, ptr %vfn5, align 8
  call void %3(ptr noundef nonnull align 8 dereferenceable(1556) %2) #7
  br label %delete.end6

delete.end6:                                      ; preds = %delete.notnull3, %delete.end
  %fSkipSet = getelementptr inbounds %"class.icu_75::CjkBreakEngine", ptr %this1, i32 0, i32 8
  call void @_ZN6icu_759HashtableD2Ev(ptr noundef nonnull align 8 dereferenceable(88) %fSkipSet) #7
  %fClosePunctuationSet = getelementptr inbounds %"class.icu_75::CjkBreakEngine", ptr %this1, i32 0, i32 3
  call void @_ZN6icu_7510UnicodeSetD1Ev(ptr noundef nonnull align 8 dereferenceable(200) %fClosePunctuationSet) #7
  %fDigitOrOpenPunctuationOrAlphabetSet = getelementptr inbounds %"class.icu_75::CjkBreakEngine", ptr %this1, i32 0, i32 2
  call void @_ZN6icu_7510UnicodeSetD1Ev(ptr noundef nonnull align 8 dereferenceable(200) %fDigitOrOpenPunctuationOrAlphabetSet) #7
  %fHangulWordSet = getelementptr inbounds %"class.icu_75::CjkBreakEngine", ptr %this1, i32 0, i32 1
  call void @_ZN6icu_7510UnicodeSetD1Ev(ptr noundef nonnull align 8 dereferenceable(200) %fHangulWordSet) #7
  call void @_ZN6icu_7521DictionaryBreakEngineD2Ev(ptr noundef nonnull align 8 dereferenceable(208) %this1) #7
  ret void
}