; Function Attrs: mustprogress nounwind uwtable
define void @_ZN6icu_7514CjkBreakEngineD2Ev(ptr noundef nonnull align 8 dereferenceable(928) %this) unnamed_addr #3 align 2 personality ptr @__gxx_personality_v0 {
entry:
  store ptr getelementptr inbounds ({ [9 x ptr] }, ptr @_ZTVN6icu_7514CjkBreakEngineE, i64 0, i32 0, i64 2), ptr %this, align 8
  %fDictionary = getelementptr inbounds i8, ptr %this, i64 808
  %0 = load ptr, ptr %fDictionary, align 8
  %isnull = icmp eq ptr %0, null
  br i1 %isnull, label %delete.end, label %delete.notnull

delete.notnull:                                   ; preds = %entry
  %vtable = load ptr, ptr %0, align 8
  %vfn = getelementptr inbounds i8, ptr %vtable, i64 8
  %1 = load ptr, ptr %vfn, align 8
  tail call void %1(ptr noundef nonnull align 8 dereferenceable(8) %0) #9
  br label %delete.end

delete.end:                                       ; preds = %delete.notnull, %entry
  %fMlBreakEngine = getelementptr inbounds i8, ptr %this, i64 824
  %2 = load ptr, ptr %fMlBreakEngine, align 8
  %isnull2 = icmp eq ptr %2, null
  br i1 %isnull2, label %delete.end6, label %delete.notnull3

delete.notnull3:                                  ; preds = %delete.end
  %vtable4 = load ptr, ptr %2, align 8
  %vfn5 = getelementptr inbounds i8, ptr %vtable4, i64 8
  %3 = load ptr, ptr %vfn5, align 8
  tail call void %3(ptr noundef nonnull align 8 dereferenceable(1556) %2) #9
  br label %delete.end6

delete.end6:                                      ; preds = %delete.notnull3, %delete.end
  %fSkipSet = getelementptr inbounds i8, ptr %this, i64 840
  %4 = load ptr, ptr %fSkipSet, align 8
  %cmp.not.i = icmp eq ptr %4, null
  br i1 %cmp.not.i, label %_ZN6icu_759HashtableD2Ev.exit, label %if.then.i

if.then.i:                                        ; preds = %delete.end6
  invoke void @uhash_close_75(ptr noundef nonnull %4)
          to label %_ZN6icu_759HashtableD2Ev.exit unwind label %terminate.lpad.i

terminate.lpad.i:                                 ; preds = %if.then.i
  %5 = landingpad { ptr, i32 }
          catch ptr null
  %6 = extractvalue { ptr, i32 } %5, 0
  tail call void @__clang_call_terminate(ptr %6) #10
  unreachable

_ZN6icu_759HashtableD2Ev.exit:                    ; preds = %delete.end6, %if.then.i
  %fClosePunctuationSet = getelementptr inbounds i8, ptr %this, i64 608
  tail call void @_ZN6icu_7510UnicodeSetD1Ev(ptr noundef nonnull align 8 dereferenceable(200) %fClosePunctuationSet) #9
  %fDigitOrOpenPunctuationOrAlphabetSet = getelementptr inbounds i8, ptr %this, i64 408
  tail call void @_ZN6icu_7510UnicodeSetD1Ev(ptr noundef nonnull align 8 dereferenceable(200) %fDigitOrOpenPunctuationOrAlphabetSet) #9
  %fHangulWordSet = getelementptr inbounds i8, ptr %this, i64 208
  tail call void @_ZN6icu_7510UnicodeSetD1Ev(ptr noundef nonnull align 8 dereferenceable(200) %fHangulWordSet) #9
  store ptr getelementptr inbounds ({ [9 x ptr] }, ptr @_ZTVN6icu_7521DictionaryBreakEngineE, i64 0, i32 0, i64 2), ptr %this, align 8
  %fSet.i = getelementptr inbounds i8, ptr %this, i64 8
  tail call void @_ZN6icu_7510UnicodeSetD1Ev(ptr noundef nonnull align 8 dereferenceable(200) %fSet.i) #9
  tail call void @_ZN6icu_7519LanguageBreakEngineD2Ev(ptr noundef nonnull align 8 dereferenceable(8) %this) #9
  ret void
}